target datalayout = "e-m:e-p270:32:32-p271:32:32-p272:64:64-i64:64-i128:128-f80:128-n8:16:32:64-S128"
target triple = "x86_64-pc-linux-gnu"

; Function Attrs: mustprogress nounwind uwtable
define internal noundef zeroext i1 @_ZN6duckdbL21grapheme_break_simpleEii(i32 noundef %0, i32 noundef %1) #0 {
  %3 = alloca i32, align 4
  %4 = alloca i32, align 4
  store i32 %0, ptr %3, align 4, !tbaa !12
  store i32 %1, ptr %4, align 4, !tbaa !12
  %5 = load i32, ptr %3, align 4, !tbaa !12
  %6 = icmp eq i32 %5, 0
  br i1 %6, label %7, label %8

7:                                                ; preds = %2
  br label %113

8:                                                ; preds = %2
  %9 = load i32, ptr %3, align 4, !tbaa !12
  %10 = icmp eq i32 %9, 2
  br i1 %10, label %11, label %15

11:                                               ; preds = %8
  %12 = load i32, ptr %4, align 4, !tbaa !12
  %13 = icmp eq i32 %12, 3
  br i1 %13, label %14, label %15

14:                                               ; preds = %11
  br label %111

15:                                               ; preds = %11, %8
  %16 = load i32, ptr %3, align 4, !tbaa !12
  %17 = icmp sge i32 %16, 2
  br i1 %17, label %18, label %22

18:                                               ; preds = %15
  %19 = load i32, ptr %3, align 4, !tbaa !12
  %20 = icmp sle i32 %19, 4
  br i1 %20, label %21, label %22

21:                                               ; preds = %18
  br label %109

22:                                               ; preds = %18, %15
  %23 = load i32, ptr %4, align 4, !tbaa !12
  %24 = icmp sge i32 %23, 2
  br i1 %24, label %25, label %29

25:                                               ; preds = %22
  %26 = load i32, ptr %4, align 4, !tbaa !12
  %27 = icmp sle i32 %26, 4
  br i1 %27, label %28, label %29

28:                                               ; preds = %25
  br label %107

29:                                               ; preds = %25, %22
  %30 = load i32, ptr %3, align 4, !tbaa !12
  %31 = icmp eq i32 %30, 6
  br i1 %31, label %32, label %45

32:                                               ; preds = %29
  %33 = load i32, ptr %4, align 4, !tbaa !12
  %34 = icmp eq i32 %33, 6
  br i1 %34, label %44, label %35

35:                                               ; preds = %32
  %36 = load i32, ptr %4, align 4, !tbaa !12
  %37 = icmp eq i32 %36, 7
  br i1 %37, label %44, label %38

38:                                               ; preds = %35
  %39 = load i32, ptr %4, align 4, !tbaa !12
  %40 = icmp eq i32 %39, 9
  br i1 %40, label %44, label %41

41:                                               ; preds = %38
  %42 = load i32, ptr %4, align 4, !tbaa !12
  %43 = icmp eq i32 %42, 10
  br i1 %43, label %44, label %45

44:                                               ; preds = %41, %38, %35, %32
  br label %105

45:                                               ; preds = %41, %29
  %46 = load i32, ptr %3, align 4, !tbaa !12
  %47 = icmp eq i32 %46, 9
  br i1 %47, label %51, label %48

48:                                               ; preds = %45
  %49 = load i32, ptr %3, align 4, !tbaa !12
  %50 = icmp eq i32 %49, 7
  br i1 %50, label %51, label %58

51:                                               ; preds = %48, %45
  %52 = load i32, ptr %4, align 4, !tbaa !12
  %53 = icmp eq i32 %52, 7
  br i1 %53, label %57, label %54

54:                                               ; preds = %51
  %55 = load i32, ptr %4, align 4, !tbaa !12
  %56 = icmp eq i32 %55, 8
  br i1 %56, label %57, label %58

57:                                               ; preds = %54, %51
  br label %103

58:                                               ; preds = %54, %48
  %59 = load i32, ptr %3, align 4, !tbaa !12
  %60 = icmp eq i32 %59, 10
  br i1 %60, label %64, label %61

61:                                               ; preds = %58
  %62 = load i32, ptr %3, align 4, !tbaa !12
  %63 = icmp eq i32 %62, 8
  br i1 %63, label %64, label %68

64:                                               ; preds = %61, %58
  %65 = load i32, ptr %4, align 4, !tbaa !12
  %66 = icmp eq i32 %65, 8
  br i1 %66, label %67, label %68

67:                                               ; preds = %64
  br label %101

68:                                               ; preds = %64, %61
  %69 = load i32, ptr %4, align 4, !tbaa !12
  %70 = icmp eq i32 %69, 5
  br i1 %70, label %80, label %71

71:                                               ; preds = %68
  %72 = load i32, ptr %4, align 4, !tbaa !12
  %73 = icmp eq i32 %72, 14
  br i1 %73, label %80, label %74

74:                                               ; preds = %71
  %75 = load i32, ptr %4, align 4, !tbaa !12
  %76 = icmp eq i32 %75, 12
  br i1 %76, label %80, label %77

77:                                               ; preds = %74
  %78 = load i32, ptr %3, align 4, !tbaa !12
  %79 = icmp eq i32 %78, 13
  br i1 %79, label %80, label %81

80:                                               ; preds = %77, %74, %71, %68
  br label %99

81:                                               ; preds = %77
  %82 = load i32, ptr %3, align 4, !tbaa !12
  %83 = icmp eq i32 %82, 20
  br i1 %83, label %84, label %88

84:                                               ; preds = %81
  %85 = load i32, ptr %4, align 4, !tbaa !12
  %86 = icmp eq i32 %85, 19
  br i1 %86, label %87, label %88

87:                                               ; preds = %84
  br label %97

88:                                               ; preds = %84, %81
  %89 = load i32, ptr %3, align 4, !tbaa !12
  %90 = icmp eq i32 %89, 11
  br i1 %90, label %91, label %94

91:                                               ; preds = %88
  %92 = load i32, ptr %4, align 4, !tbaa !12
  %93 = icmp eq i32 %92, 11
  br label %94

94:                                               ; preds = %91, %88
  %95 = phi i1 [ false, %88 ], [ %93, %91 ]
  %96 = select i1 %95, i1 false, i1 true
  br label %97

97:                                               ; preds = %94, %87
  %98 = phi i1 [ false, %87 ], [ %96, %94 ]
  br label %99

99:                                               ; preds = %97, %80
  %100 = phi i1 [ false, %80 ], [ %98, %97 ]
  br label %101

101:                                              ; preds = %99, %67
  %102 = phi i1 [ false, %67 ], [ %100, %99 ]
  br label %103

103:                                              ; preds = %101, %57
  %104 = phi i1 [ false, %57 ], [ %102, %101 ]
  br label %105

105:                                              ; preds = %103, %44
  %106 = phi i1 [ false, %44 ], [ %104, %103 ]
  br label %107

107:                                              ; preds = %105, %28
  %108 = phi i1 [ true, %28 ], [ %106, %105 ]
  br label %109

109:                                              ; preds = %107, %21
  %110 = phi i1 [ true, %21 ], [ %108, %107 ]
  br label %111

111:                                              ; preds = %109, %14
  %112 = phi i1 [ false, %14 ], [ %110, %109 ]
  br label %113

113:                                              ; preds = %111, %7
  %114 = phi i1 [ true, %7 ], [ %112, %111 ]
  ret i1 %114
}

; Function Attrs: mustprogress uwtable
define internal noundef zeroext i1 @_ZN6duckdbL23grapheme_break_extendedEiiiiPi(i32 noundef %0, i32 noundef %1, i32 noundef %2, i32 noundef %3, ptr noundef %4) #2 {
  %6 = alloca i1, align 1
  %7 = alloca i32, align 4
  %8 = alloca i32, align 4
  %9 = alloca i32, align 4
  %10 = alloca i32, align 4
  %11 = alloca ptr, align 8
  %12 = alloca i32, align 4
  %13 = alloca i32, align 4
  %14 = alloca i8, align 1
  store i32 %0, ptr %7, align 4, !tbaa !12
  store i32 %1, ptr %8, align 4, !tbaa !12
  store i32 %2, ptr %9, align 4, !tbaa !12
  store i32 %3, ptr %10, align 4, !tbaa !12
  store ptr %4, ptr %11, align 8, !tbaa !10
  %15 = load ptr, ptr %11, align 8, !tbaa !10
  %16 = icmp ne ptr %15, null
  br i1 %16, label %17, label %109

17:                                               ; preds = %5
  call void @llvm.lifetime.start.p0(i64 4, ptr %12) #6
  call void @llvm.lifetime.start.p0(i64 4, ptr %13) #6
  %18 = load ptr, ptr %11, align 8, !tbaa !10
  %19 = load i32, ptr %18, align 4, !tbaa !12
  %20 = icmp eq i32 %19, 0
  br i1 %20, label %21, label %30

21:                                               ; preds = %17
  %22 = load i32, ptr %7, align 4, !tbaa !12
  store i32 %22, ptr %12, align 4, !tbaa !12
  %23 = load i32, ptr %9, align 4, !tbaa !12
  %24 = icmp eq i32 %23, 2
  br i1 %24, label %25, label %27

25:                                               ; preds = %21
  %26 = load i32, ptr %9, align 4, !tbaa !12
  br label %28

27:                                               ; preds = %21
  br label %28

28:                                               ; preds = %27, %25
  %29 = phi i32 [ %26, %25 ], [ 0, %27 ]
  store i32 %29, ptr %13, align 4, !tbaa !12
  br label %37

30:                                               ; preds = %17
  %31 = load ptr, ptr %11, align 8, !tbaa !10
  %32 = load i32, ptr %31, align 4, !tbaa !12
  %33 = and i32 %32, 255
  store i32 %33, ptr %12, align 4, !tbaa !12
  %34 = load ptr, ptr %11, align 8, !tbaa !10
  %35 = load i32, ptr %34, align 4, !tbaa !12
  %36 = ashr i32 %35, 8
  store i32 %36, ptr %13, align 4, !tbaa !12
  br label %37

37:                                               ; preds = %30, %28
  call void @llvm.lifetime.start.p0(i64 1, ptr %14) #6
  %38 = load i32, ptr %12, align 4, !tbaa !12
  %39 = load i32, ptr %8, align 4, !tbaa !12
  %40 = call noundef zeroext i1 @_ZN6duckdbL21grapheme_break_simpleEii(i32 noundef %38, i32 noundef %39)
  br i1 %40, label %41, label %50

41:                                               ; preds = %37
  %42 = load i32, ptr %13, align 4, !tbaa !12
  %43 = icmp eq i32 %42, 1
  br i1 %43, label %44, label %47

44:                                               ; preds = %41
  %45 = load i32, ptr %10, align 4, !tbaa !12
  %46 = icmp eq i32 %45, 2
  br label %47

47:                                               ; preds = %44, %41
  %48 = phi i1 [ false, %41 ], [ %46, %44 ]
  %49 = xor i1 %48, true
  br label %50

50:                                               ; preds = %47, %37
  %51 = phi i1 [ false, %37 ], [ %49, %47 ]
  %52 = zext i1 %51 to i8
  store i8 %52, ptr %14, align 1, !tbaa !19
  %53 = load i32, ptr %10, align 4, !tbaa !12
  %54 = icmp eq i32 %53, 2
  br i1 %54, label %61, label %55

55:                                               ; preds = %50
  %56 = load i32, ptr %13, align 4, !tbaa !12
  %57 = icmp eq i32 %56, 2
  br i1 %57, label %61, label %58

58:                                               ; preds = %55
  %59 = load i32, ptr %13, align 4, !tbaa !12
  %60 = icmp eq i32 %59, 3
  br i1 %60, label %61, label %63

61:                                               ; preds = %58, %55, %50
  %62 = load i32, ptr %10, align 4, !tbaa !12
  store i32 %62, ptr %13, align 4, !tbaa !12
  br label %75

63:                                               ; preds = %58
  %64 = load i32, ptr %13, align 4, !tbaa !12
  %65 = icmp eq i32 %64, 1
  br i1 %65, label %66, label %74

66:                                               ; preds = %63
  %67 = load i32, ptr %10, align 4, !tbaa !12
  %68 = icmp eq i32 %67, 3
  br i1 %68, label %69, label %70

69:                                               ; preds = %66
  br label %72

70:                                               ; preds = %66
  %71 = load i32, ptr %10, align 4, !tbaa !12
  br label %72

72:                                               ; preds = %70, %69
  %73 = phi i32 [ 1, %69 ], [ %71, %70 ]
  store i32 %73, ptr %13, align 4, !tbaa !12
  br label %74

74:                                               ; preds = %72, %63
  br label %75

75:                                               ; preds = %74, %61
  %76 = load i32, ptr %12, align 4, !tbaa !12
  %77 = load i32, ptr %8, align 4, !tbaa !12
  %78 = icmp eq i32 %76, %77
  br i1 %78, label %79, label %83

79:                                               ; preds = %75
  %80 = load i32, ptr %8, align 4, !tbaa !12
  %81 = icmp eq i32 %80, 11
  br i1 %81, label %82, label %83

82:                                               ; preds = %79
  store i32 1, ptr %12, align 4, !tbaa !12
  br label %101

83:                                               ; preds = %79, %75
  %84 = load i32, ptr %12, align 4, !tbaa !12
  %85 = icmp eq i32 %84, 19
  br i1 %85, label %86, label %98

86:                                               ; preds = %83
  %87 = load i32, ptr %8, align 4, !tbaa !12
  %88 = icmp eq i32 %87, 5
  br i1 %88, label %89, label %90

89:                                               ; preds = %86
  store i32 19, ptr %12, align 4, !tbaa !12
  br label %97

90:                                               ; preds = %86
  %91 = load i32, ptr %8, align 4, !tbaa !12
  %92 = icmp eq i32 %91, 14
  br i1 %92, label %93, label %94

93:                                               ; preds = %90
  store i32 20, ptr %12, align 4, !tbaa !12
  br label %96

94:                                               ; preds = %90
  %95 = load i32, ptr %8, align 4, !tbaa !12
  store i32 %95, ptr %12, align 4, !tbaa !12
  br label %96

96:                                               ; preds = %94, %93
  br label %97

97:                                               ; preds = %96, %89
  br label %100

98:                                               ; preds = %83
  %99 = load i32, ptr %8, align 4, !tbaa !12
  store i32 %99, ptr %12, align 4, !tbaa !12
  br label %100

100:                                              ; preds = %98, %97
  br label %101

101:                                              ; preds = %100, %82
  %102 = load i32, ptr %12, align 4, !tbaa !12
  %103 = load i32, ptr %13, align 4, !tbaa !12
  %104 = shl i32 %103, 8
  %105 = add nsw i32 %102, %104
  %106 = load ptr, ptr %11, align 8, !tbaa !10
  store i32 %105, ptr %106, align 4, !tbaa !12
  %107 = load i8, ptr %14, align 1, !tbaa !19, !range !21, !noundef !22
  %108 = trunc i8 %107 to i1
  store i1 %108, ptr %6, align 1
  call void @llvm.lifetime.end.p0(i64 1, ptr %14) #6
  call void @llvm.lifetime.end.p0(i64 4, ptr %13) #6
  call void @llvm.lifetime.end.p0(i64 4, ptr %12) #6
  br label %113

109:                                              ; preds = %5
  %110 = load i32, ptr %7, align 4, !tbaa !12
  %111 = load i32, ptr %8, align 4, !tbaa !12
  %112 = call noundef zeroext i1 @_ZN6duckdbL21grapheme_break_simpleEii(i32 noundef %110, i32 noundef %111)
  store i1 %112, ptr %6, align 1
  br label %113

113:                                              ; preds = %109, %101
  %114 = load i1, ptr %6, align 1
  ret i1 %114
}