; Function Attrs: mustprogress nofree norecurse nosync nounwind willreturn memory(argmem: readwrite) uwtable
define internal fastcc noundef zeroext i1 @_ZN6duckdbL23grapheme_break_extendedEiiiiPi(i32 noundef range(i32 0, 64) %0, i32 noundef range(i32 0, 64) %1, i32 noundef range(i32 0, 4) %2, i32 noundef range(i32 0, 4) %3, ptr noundef captures(address_is_null) %4) unnamed_addr #1 {
  %.not = icmp eq ptr %4, null
  br i1 %.not, label %62, label %6

6:                                                ; preds = %5
  %7 = load i32, ptr %4, align 4, !tbaa !3
  %8 = icmp eq i32 %7, 0
  %9 = icmp eq i32 %2, 2
  %10 = select i1 %9, i32 2, i32 0
  %11 = and i32 %7, 255
  %12 = ashr i32 %7, 8
  %.038 = select i1 %8, i32 %0, i32 %11
  %.037 = select i1 %8, i32 %10, i32 %12
  %13 = icmp eq i32 %.038, 0
  br i1 %13, label %_ZN6duckdbL21grapheme_break_simpleEii.exit.thread64, label %14

14:                                               ; preds = %6
  %15 = icmp eq i32 %.038, 2
  %16 = icmp eq i32 %1, 3
  %or.cond.i = and i1 %16, %15
  br i1 %or.cond.i, label %_ZN6duckdbL21grapheme_break_simpleEii.exit.thread, label %17

17:                                               ; preds = %14
  %18 = icmp ne i32 %.038, 1
  %19 = icmp samesign ult i32 %.038, 5
  %or.cond3.i = and i1 %18, %19
  %20 = add nsw i32 %1, -2
  %or.cond5.i = icmp ult i32 %20, 3
  %or.cond57.i = select i1 %or.cond3.i, i1 true, i1 %or.cond5.i
  br i1 %or.cond57.i, label %_ZN6duckdbL21grapheme_break_simpleEii.exit.thread64, label %21

21:                                               ; preds = %17
  %trunc.i = trunc nuw i32 %.038 to i8
  switch i8 %trunc.i, label %28 [
    i8 6, label %22
    i8 9, label %26
    i8 7, label %26
  ]

22:                                               ; preds = %21
  %23 = and i32 %1, 62
  %or.cond7.i = icmp eq i32 %23, 6
  %24 = add nsw i32 %1, -9
  %25 = icmp ult i32 %24, 2
  %or.cond11.i = or i1 %or.cond7.i, %25
  br i1 %or.cond11.i, label %_ZN6duckdbL21grapheme_break_simpleEii.exit.thread, label %.thread.i

26:                                               ; preds = %21, %21
  %27 = add nsw i32 %1, -7
  %or.cond15.i = icmp ult i32 %27, 2
  br i1 %or.cond15.i, label %_ZN6duckdbL21grapheme_break_simpleEii.exit.thread, label %28

28:                                               ; preds = %26, %21
  %29 = and i32 %.038, 253
  %or.cond17.i = icmp eq i32 %29, 8
  %30 = icmp eq i32 %1, 8
  %or.cond19.i = and i1 %30, %or.cond17.i
  br i1 %or.cond19.i, label %_ZN6duckdbL21grapheme_break_simpleEii.exit.thread, label %.thread.i

.thread.i:                                        ; preds = %28, %22
  %31 = icmp eq i32 %1, 5
  %32 = and i32 %1, 61
  %33 = icmp eq i32 %32, 12
  %or.cond23.i = or i1 %31, %33
  %34 = icmp eq i32 %.038, 13
  %or.cond25.i = or i1 %or.cond23.i, %34
  br i1 %or.cond25.i, label %_ZN6duckdbL21grapheme_break_simpleEii.exit.thread, label %35

35:                                               ; preds = %.thread.i
  %36 = icmp eq i32 %.038, 20
  %37 = icmp eq i32 %1, 19
  %or.cond27.i = and i1 %37, %36
  br i1 %or.cond27.i, label %_ZN6duckdbL21grapheme_break_simpleEii.exit.thread, label %_ZN6duckdbL21grapheme_break_simpleEii.exit

_ZN6duckdbL21grapheme_break_simpleEii.exit:       ; preds = %35
  %38 = icmp ne i32 %.038, 11
  %39 = icmp ne i32 %1, 11
  %.not56.i = or i1 %39, %38
  br i1 %.not56.i, label %_ZN6duckdbL21grapheme_break_simpleEii.exit.thread64, label %_ZN6duckdbL21grapheme_break_simpleEii.exit.thread

_ZN6duckdbL21grapheme_break_simpleEii.exit.thread64: ; preds = %17, %6, %_ZN6duckdbL21grapheme_break_simpleEii.exit
  %40 = icmp ne i32 %.037, 1
  %41 = icmp ne i32 %3, 2
  %.not46 = or i1 %41, %40
  br label %_ZN6duckdbL21grapheme_break_simpleEii.exit.thread

_ZN6duckdbL21grapheme_break_simpleEii.exit.thread: ; preds = %35, %.thread.i, %28, %26, %22, %14, %_ZN6duckdbL21grapheme_break_simpleEii.exit.thread64, %_ZN6duckdbL21grapheme_break_simpleEii.exit
  %42 = phi i1 [ false, %_ZN6duckdbL21grapheme_break_simpleEii.exit ], [ %.not46, %_ZN6duckdbL21grapheme_break_simpleEii.exit.thread64 ], [ false, %14 ], [ false, %22 ], [ false, %26 ], [ false, %28 ], [ false, %.thread.i ], [ false, %35 ]
  %43 = icmp eq i32 %3, 2
  %44 = and i32 %.037, -2
  %45 = icmp eq i32 %44, 2
  %or.cond3 = or i1 %43, %45
  br i1 %or.cond3, label %51, label %46

46:                                               ; preds = %_ZN6duckdbL21grapheme_break_simpleEii.exit.thread
  %47 = icmp eq i32 %.037, 1
  br i1 %47, label %48, label %51

48:                                               ; preds = %46
  %49 = icmp eq i32 %3, 3
  %50 = select i1 %49, i32 1, i32 %3
  br label %51

51:                                               ; preds = %_ZN6duckdbL21grapheme_break_simpleEii.exit.thread, %46, %48
  %.1 = phi i32 [ %50, %48 ], [ %.037, %46 ], [ %3, %_ZN6duckdbL21grapheme_break_simpleEii.exit.thread ]
  %52 = icmp eq i32 %1, 11
  %53 = icmp eq i32 %.038, 11
  %or.cond5 = and i1 %52, %53
  br i1 %or.cond5, label %59, label %54

54:                                               ; preds = %51
  %55 = icmp eq i32 %.038, 19
  br i1 %55, label %56, label %59

56:                                               ; preds = %54
  switch i32 %1, label %58 [
    i32 5, label %59
    i32 14, label %57
  ]

57:                                               ; preds = %56
  br label %59

58:                                               ; preds = %56
  br label %59

59:                                               ; preds = %54, %56, %51, %57, %58
  %.139 = phi i32 [ 20, %57 ], [ %1, %58 ], [ 1, %51 ], [ 19, %56 ], [ %1, %54 ]
  %60 = shl nsw i32 %.1, 8
  %61 = or disjoint i32 %.139, %60
  store i32 %61, ptr %4, align 4, !tbaa !3
  br label %_ZN6duckdbL21grapheme_break_simpleEii.exit62

62:                                               ; preds = %5
  %63 = icmp eq i32 %0, 0
  br i1 %63, label %_ZN6duckdbL21grapheme_break_simpleEii.exit62, label %64

64:                                               ; preds = %62
  %65 = icmp eq i32 %0, 2
  %66 = icmp eq i32 %1, 3
  %or.cond.i47 = and i1 %65, %66
  br i1 %or.cond.i47, label %_ZN6duckdbL21grapheme_break_simpleEii.exit62, label %67

67:                                               ; preds = %64
  %68 = icmp ne i32 %0, 1
  %69 = icmp samesign ult i32 %0, 5
  %or.cond3.i48 = and i1 %68, %69
  %70 = add nsw i32 %1, -2
  %or.cond5.i49 = icmp ult i32 %70, 3
  %or.cond57.i50 = select i1 %or.cond3.i48, i1 true, i1 %or.cond5.i49
  br i1 %or.cond57.i50, label %_ZN6duckdbL21grapheme_break_simpleEii.exit62, label %71

71:                                               ; preds = %67
  %trunc.i51 = trunc nuw nsw i32 %0 to i8
  switch i8 %trunc.i51, label %78 [
    i8 6, label %72
    i8 9, label %76
    i8 7, label %76
  ]

72:                                               ; preds = %71
  %73 = and i32 %1, 62
  %or.cond7.i60 = icmp eq i32 %73, 6
  %74 = add nsw i32 %1, -9
  %75 = icmp ult i32 %74, 2
  %or.cond11.i61 = or i1 %or.cond7.i60, %75
  br i1 %or.cond11.i61, label %_ZN6duckdbL21grapheme_break_simpleEii.exit62, label %.thread.i55

76:                                               ; preds = %71, %71
  %77 = add nsw i32 %1, -7
  %or.cond15.i52 = icmp ult i32 %77, 2
  br i1 %or.cond15.i52, label %_ZN6duckdbL21grapheme_break_simpleEii.exit62, label %78

78:                                               ; preds = %76, %71
  %79 = and i32 %0, 61
  %or.cond17.i53 = icmp eq i32 %79, 8
  %80 = icmp eq i32 %1, 8
  %or.cond19.i54 = and i1 %or.cond17.i53, %80
  br i1 %or.cond19.i54, label %_ZN6duckdbL21grapheme_break_simpleEii.exit62, label %.thread.i55

.thread.i55:                                      ; preds = %78, %72
  %81 = icmp eq i32 %1, 5
  %82 = and i32 %1, 61
  %83 = icmp eq i32 %82, 12
  %or.cond23.i56 = or i1 %81, %83
  %84 = icmp eq i32 %0, 13
  %or.cond25.i57 = or i1 %84, %or.cond23.i56
  br i1 %or.cond25.i57, label %_ZN6duckdbL21grapheme_break_simpleEii.exit62, label %85

85:                                               ; preds = %.thread.i55
  %86 = icmp eq i32 %0, 20
  %87 = icmp eq i32 %1, 19
  %or.cond27.i58 = and i1 %86, %87
  br i1 %or.cond27.i58, label %_ZN6duckdbL21grapheme_break_simpleEii.exit62, label %88

88:                                               ; preds = %85
  %89 = icmp ne i32 %0, 11
  %90 = icmp ne i32 %1, 11
  %.not56.i59 = or i1 %89, %90
  br label %_ZN6duckdbL21grapheme_break_simpleEii.exit62

_ZN6duckdbL21grapheme_break_simpleEii.exit62:     ; preds = %88, %85, %.thread.i55, %78, %76, %72, %67, %64, %62, %59
  %.0 = phi i1 [ %42, %59 ], [ true, %62 ], [ false, %64 ], [ true, %67 ], [ false, %72 ], [ false, %76 ], [ false, %78 ], [ false, %.thread.i55 ], [ %.not56.i59, %88 ], [ false, %85 ]
  ret i1 %.0
}